target datalayout = "e-m:e-p270:32:32-p271:32:32-p272:64:64-i64:64-i128:128-f80:128-n8:16:32:64-S128"
target triple = "x86_64-pc-linux-gnu"

%struct.wc_Sha512 = type { [8 x i64], [16 x i64], i32, i64, i64, ptr }

; Function Attrs: inlinehint nounwind uwtable
define internal i64 @rotlFixed64(i64 noundef %0, i64 noundef %1) #1 {
  %3 = alloca i64, align 8
  %4 = alloca i64, align 8
  store i64 %0, ptr %3, align 8, !tbaa !14
  store i64 %1, ptr %4, align 8, !tbaa !14
  %5 = load i64, ptr %3, align 8, !tbaa !14
  %6 = load i64, ptr %4, align 8, !tbaa !14
  %7 = shl i64 %5, %6
  %8 = load i64, ptr %3, align 8, !tbaa !14
  %9 = load i64, ptr %4, align 8, !tbaa !14
  %10 = sub i64 64, %9
  %11 = lshr i64 %8, %10
  %12 = or i64 %7, %11
  ret i64 %12
}

; Function Attrs: inlinehint nounwind uwtable
define internal i64 @ByteReverseWord64(i64 noundef %0) #1 {
  %2 = alloca i64, align 8
  store i64 %0, ptr %2, align 8, !tbaa !14
  %3 = load i64, ptr %2, align 8, !tbaa !14
  %4 = and i64 %3, -71777214294589696
  %5 = lshr i64 %4, 8
  %6 = load i64, ptr %2, align 8, !tbaa !14
  %7 = and i64 %6, 71777214294589695
  %8 = shl i64 %7, 8
  %9 = or i64 %5, %8
  store i64 %9, ptr %2, align 8, !tbaa !14
  %10 = load i64, ptr %2, align 8, !tbaa !14
  %11 = and i64 %10, -281470681808896
  %12 = lshr i64 %11, 16
  %13 = load i64, ptr %2, align 8, !tbaa !14
  %14 = and i64 %13, 281470681808895
  %15 = shl i64 %14, 16
  %16 = or i64 %12, %15
  store i64 %16, ptr %2, align 8, !tbaa !14
  %17 = load i64, ptr %2, align 8, !tbaa !14
  %18 = call i64 @rotlFixed64(i64 noundef %17, i64 noundef 32)
  ret i64 %18
}

; Function Attrs: inlinehint nounwind uwtable
define internal void @ByteReverseWords64(ptr noundef %0, ptr noundef %1, i32 noundef %2) #1 {
  %4 = alloca ptr, align 8
  %5 = alloca ptr, align 8
  %6 = alloca i32, align 4
  %7 = alloca i32, align 4
  %8 = alloca i32, align 4
  store ptr %0, ptr %4, align 8, !tbaa !24
  store ptr %1, ptr %5, align 8, !tbaa !24
  store i32 %2, ptr %6, align 4, !tbaa !9
  call void @llvm.lifetime.start.p0(i64 4, ptr %7) #5
  %9 = load i32, ptr %6, align 4, !tbaa !9
  %10 = udiv i32 %9, 8
  store i32 %10, ptr %7, align 4, !tbaa !9
  call void @llvm.lifetime.start.p0(i64 4, ptr %8) #5
  store i32 0, ptr %8, align 4, !tbaa !9
  br label %11

11:                                               ; preds = %26, %3
  %12 = load i32, ptr %8, align 4, !tbaa !9
  %13 = load i32, ptr %7, align 4, !tbaa !9
  %14 = icmp ult i32 %12, %13
  br i1 %14, label %15, label %29

15:                                               ; preds = %11
  %16 = load ptr, ptr %5, align 8, !tbaa !24
  %17 = load i32, ptr %8, align 4, !tbaa !9
  %18 = zext i32 %17 to i64
  %19 = getelementptr inbounds nuw i64, ptr %16, i64 %18
  %20 = load i64, ptr %19, align 8, !tbaa !14
  %21 = call i64 @ByteReverseWord64(i64 noundef %20)
  %22 = load ptr, ptr %4, align 8, !tbaa !24
  %23 = load i32, ptr %8, align 4, !tbaa !9
  %24 = zext i32 %23 to i64
  %25 = getelementptr inbounds nuw i64, ptr %22, i64 %24
  store i64 %21, ptr %25, align 8, !tbaa !14
  br label %26

26:                                               ; preds = %15
  %27 = load i32, ptr %8, align 4, !tbaa !9
  %28 = add i32 %27, 1
  store i32 %28, ptr %8, align 4, !tbaa !9
  br label %11, !llvm.loop !28

29:                                               ; preds = %11
  call void @llvm.lifetime.end.p0(i64 4, ptr %8) #5
  call void @llvm.lifetime.end.p0(i64 4, ptr %7) #5
  ret void
}

; Function Attrs: inlinehint nounwind uwtable
define internal i32 @Sha512Final(ptr noundef %0) #1 {
  %2 = alloca i32, align 4
  %3 = alloca ptr, align 8
  %4 = alloca i32, align 4
  %5 = alloca ptr, align 8
  %6 = alloca i32, align 4
  store ptr %0, ptr %3, align 8, !tbaa !3
  call void @llvm.lifetime.start.p0(i64 4, ptr %4) #5
  call void @llvm.lifetime.start.p0(i64 8, ptr %5) #5
  %7 = load ptr, ptr %3, align 8, !tbaa !3
  %8 = icmp eq ptr %7, null
  br i1 %8, label %9, label %10

9:                                                ; preds = %1
  store i32 -173, ptr %2, align 4
  store i32 1, ptr %6, align 4
  br label %132

10:                                               ; preds = %1
  %11 = load ptr, ptr %3, align 8, !tbaa !3
  %12 = getelementptr inbounds nuw %struct.wc_Sha512, ptr %11, i32 0, i32 1
  %13 = getelementptr inbounds [16 x i64], ptr %12, i64 0, i64 0
  store ptr %13, ptr %5, align 8, !tbaa !18
  %14 = load ptr, ptr %3, align 8, !tbaa !3
  %15 = getelementptr inbounds nuw %struct.wc_Sha512, ptr %14, i32 0, i32 2
  %16 = load i32, ptr %15, align 8, !tbaa !15
  %17 = icmp ugt i32 %16, 127
  br i1 %17, label %18, label %19

18:                                               ; preds = %10
  store i32 -192, ptr %2, align 4
  store i32 1, ptr %6, align 4
  br label %132

19:                                               ; preds = %10
  %20 = load ptr, ptr %5, align 8, !tbaa !18
  %21 = load ptr, ptr %3, align 8, !tbaa !3
  %22 = getelementptr inbounds nuw %struct.wc_Sha512, ptr %21, i32 0, i32 2
  %23 = load i32, ptr %22, align 8, !tbaa !15
  %24 = add i32 %23, 1
  store i32 %24, ptr %22, align 8, !tbaa !15
  %25 = zext i32 %23 to i64
  %26 = getelementptr inbounds nuw i8, ptr %20, i64 %25
  store i8 -128, ptr %26, align 1, !tbaa !22
  %27 = load ptr, ptr %3, align 8, !tbaa !3
  %28 = getelementptr inbounds nuw %struct.wc_Sha512, ptr %27, i32 0, i32 2
  %29 = load i32, ptr %28, align 8, !tbaa !15
  %30 = icmp ugt i32 %29, 112
  br i1 %30, label %31, label %72

31:                                               ; preds = %19
  %32 = load ptr, ptr %3, align 8, !tbaa !3
  %33 = getelementptr inbounds nuw %struct.wc_Sha512, ptr %32, i32 0, i32 2
  %34 = load i32, ptr %33, align 8, !tbaa !15
  %35 = icmp ult i32 %34, 128
  br i1 %35, label %36, label %48

36:                                               ; preds = %31
  %37 = load ptr, ptr %5, align 8, !tbaa !18
  %38 = load ptr, ptr %3, align 8, !tbaa !3
  %39 = getelementptr inbounds nuw %struct.wc_Sha512, ptr %38, i32 0, i32 2
  %40 = load i32, ptr %39, align 8, !tbaa !15
  %41 = zext i32 %40 to i64
  %42 = getelementptr inbounds nuw i8, ptr %37, i64 %41
  %43 = load ptr, ptr %3, align 8, !tbaa !3
  %44 = getelementptr inbounds nuw %struct.wc_Sha512, ptr %43, i32 0, i32 2
  %45 = load i32, ptr %44, align 8, !tbaa !15
  %46 = sub i32 128, %45
  %47 = zext i32 %46 to i64
  call void @llvm.memset.p0.i64(ptr align 1 %42, i8 0, i64 %47, i1 false)
  br label %48

48:                                               ; preds = %36, %31
  %49 = load ptr, ptr %3, align 8, !tbaa !3
  %50 = getelementptr inbounds nuw %struct.wc_Sha512, ptr %49, i32 0, i32 2
  %51 = load i32, ptr %50, align 8, !tbaa !15
  %52 = sub i32 128, %51
  %53 = load ptr, ptr %3, align 8, !tbaa !3
  %54 = getelementptr inbounds nuw %struct.wc_Sha512, ptr %53, i32 0, i32 2
  %55 = load i32, ptr %54, align 8, !tbaa !15
  %56 = add i32 %55, %52
  store i32 %56, ptr %54, align 8, !tbaa !15
  %57 = load ptr, ptr %3, align 8, !tbaa !3
  %58 = getelementptr inbounds nuw %struct.wc_Sha512, ptr %57, i32 0, i32 1
  %59 = getelementptr inbounds [16 x i64], ptr %58, i64 0, i64 0
  %60 = load ptr, ptr %3, align 8, !tbaa !3
  %61 = getelementptr inbounds nuw %struct.wc_Sha512, ptr %60, i32 0, i32 1
  %62 = getelementptr inbounds [16 x i64], ptr %61, i64 0, i64 0
  call void @ByteReverseWords64(ptr noundef %59, ptr noundef %62, i32 noundef 128)
  %63 = load ptr, ptr %3, align 8, !tbaa !3
  %64 = call i32 @_Transform_Sha512(ptr noundef %63)
  store i32 %64, ptr %4, align 4, !tbaa !9
  %65 = load i32, ptr %4, align 4, !tbaa !9
  %66 = icmp ne i32 %65, 0
  br i1 %66, label %67, label %69

67:                                               ; preds = %48
  %68 = load i32, ptr %4, align 4, !tbaa !9
  store i32 %68, ptr %2, align 4
  store i32 1, ptr %6, align 4
  br label %132

69:                                               ; preds = %48
  %70 = load ptr, ptr %3, align 8, !tbaa !3
  %71 = getelementptr inbounds nuw %struct.wc_Sha512, ptr %70, i32 0, i32 2
  store i32 0, ptr %71, align 8, !tbaa !15
  br label %72

72:                                               ; preds = %69, %19
  %73 = load ptr, ptr %5, align 8, !tbaa !18
  %74 = load ptr, ptr %3, align 8, !tbaa !3
  %75 = getelementptr inbounds nuw %struct.wc_Sha512, ptr %74, i32 0, i32 2
  %76 = load i32, ptr %75, align 8, !tbaa !15
  %77 = zext i32 %76 to i64
  %78 = getelementptr inbounds nuw i8, ptr %73, i64 %77
  %79 = load ptr, ptr %3, align 8, !tbaa !3
  %80 = getelementptr inbounds nuw %struct.wc_Sha512, ptr %79, i32 0, i32 2
  %81 = load i32, ptr %80, align 8, !tbaa !15
  %82 = sub i32 112, %81
  %83 = zext i32 %82 to i64
  call void @llvm.memset.p0.i64(ptr align 1 %78, i8 0, i64 %83, i1 false)
  %84 = load ptr, ptr %3, align 8, !tbaa !3
  %85 = getelementptr inbounds nuw %struct.wc_Sha512, ptr %84, i32 0, i32 3
  %86 = load i64, ptr %85, align 8, !tbaa !16
  %87 = lshr i64 %86, 61
  %88 = load ptr, ptr %3, align 8, !tbaa !3
  %89 = getelementptr inbounds nuw %struct.wc_Sha512, ptr %88, i32 0, i32 4
  %90 = load i64, ptr %89, align 8, !tbaa !17
  %91 = shl i64 %90, 3
  %92 = add i64 %87, %91
  %93 = load ptr, ptr %3, align 8, !tbaa !3
  %94 = getelementptr inbounds nuw %struct.wc_Sha512, ptr %93, i32 0, i32 4
  store i64 %92, ptr %94, align 8, !tbaa !17
  %95 = load ptr, ptr %3, align 8, !tbaa !3
  %96 = getelementptr inbounds nuw %struct.wc_Sha512, ptr %95, i32 0, i32 3
  %97 = load i64, ptr %96, align 8, !tbaa !16
  %98 = shl i64 %97, 3
  %99 = load ptr, ptr %3, align 8, !tbaa !3
  %100 = getelementptr inbounds nuw %struct.wc_Sha512, ptr %99, i32 0, i32 3
  store i64 %98, ptr %100, align 8, !tbaa !16
  %101 = load ptr, ptr %3, align 8, !tbaa !3
  %102 = getelementptr inbounds nuw %struct.wc_Sha512, ptr %101, i32 0, i32 1
  %103 = getelementptr inbounds [16 x i64], ptr %102, i64 0, i64 0
  %104 = load ptr, ptr %3, align 8, !tbaa !3
  %105 = getelementptr inbounds nuw %struct.wc_Sha512, ptr %104, i32 0, i32 1
  %106 = getelementptr inbounds [16 x i64], ptr %105, i64 0, i64 0
  call void @ByteReverseWords64(ptr noundef %103, ptr noundef %106, i32 noundef 112)
  %107 = load ptr, ptr %3, align 8, !tbaa !3
  %108 = getelementptr inbounds nuw %struct.wc_Sha512, ptr %107, i32 0, i32 4
  %109 = load i64, ptr %108, align 8, !tbaa !17
  %110 = load ptr, ptr %3, align 8, !tbaa !3
  %111 = getelementptr inbounds nuw %struct.wc_Sha512, ptr %110, i32 0, i32 1
  %112 = getelementptr inbounds nuw [16 x i64], ptr %111, i64 0, i64 14
  store i64 %109, ptr %112, align 8, !tbaa !14
  %113 = load ptr, ptr %3, align 8, !tbaa !3
  %114 = getelementptr inbounds nuw %struct.wc_Sha512, ptr %113, i32 0, i32 3
  %115 = load i64, ptr %114, align 8, !tbaa !16
  %116 = load ptr, ptr %3, align 8, !tbaa !3
  %117 = getelementptr inbounds nuw %struct.wc_Sha512, ptr %116, i32 0, i32 1
  %118 = getelementptr inbounds nuw [16 x i64], ptr %117, i64 0, i64 15
  store i64 %115, ptr %118, align 8, !tbaa !14
  %119 = load ptr, ptr %3, align 8, !tbaa !3
  %120 = call i32 @_Transform_Sha512(ptr noundef %119)
  store i32 %120, ptr %4, align 4, !tbaa !9
  %121 = load i32, ptr %4, align 4, !tbaa !9
  %122 = icmp ne i32 %121, 0
  br i1 %122, label %123, label %125

123:                                              ; preds = %72
  %124 = load i32, ptr %4, align 4, !tbaa !9
  store i32 %124, ptr %2, align 4
  store i32 1, ptr %6, align 4
  br label %132

125:                                              ; preds = %72
  %126 = load ptr, ptr %3, align 8, !tbaa !3
  %127 = getelementptr inbounds nuw %struct.wc_Sha512, ptr %126, i32 0, i32 0
  %128 = getelementptr inbounds [8 x i64], ptr %127, i64 0, i64 0
  %129 = load ptr, ptr %3, align 8, !tbaa !3
  %130 = getelementptr inbounds nuw %struct.wc_Sha512, ptr %129, i32 0, i32 0
  %131 = getelementptr inbounds [8 x i64], ptr %130, i64 0, i64 0
  call void @ByteReverseWords64(ptr noundef %128, ptr noundef %131, i32 noundef 64)
  store i32 0, ptr %2, align 4
  store i32 1, ptr %6, align 4
  br label %132

132:                                              ; preds = %125, %123, %67, %18, %9
  call void @llvm.lifetime.end.p0(i64 8, ptr %5) #5
  call void @llvm.lifetime.end.p0(i64 4, ptr %4) #5
  %133 = load i32, ptr %2, align 4
  ret i32 %133
}

; Function Attrs: nounwind uwtable
define internal i32 @Sha512_Family_Final(ptr noundef %0, ptr noundef %1, i64 noundef %2, ptr noundef %3) #0 {
  %5 = alloca i32, align 4
  %6 = alloca ptr, align 8
  %7 = alloca ptr, align 8
  %8 = alloca i64, align 8
  %9 = alloca ptr, align 8
  %10 = alloca i32, align 4
  %11 = alloca i32, align 4
  store ptr %0, ptr %6, align 8, !tbaa !3
  store ptr %1, ptr %7, align 8, !tbaa !18
  store i64 %2, ptr %8, align 8, !tbaa !14
  store ptr %3, ptr %9, align 8, !tbaa !8
  call void @llvm.lifetime.start.p0(i64 4, ptr %10) #5
  %12 = load ptr, ptr %6, align 8, !tbaa !3
  %13 = icmp eq ptr %12, null
  br i1 %13, label %17, label %14

14:                                               ; preds = %4
  %15 = load ptr, ptr %7, align 8, !tbaa !18
  %16 = icmp eq ptr %15, null
  br i1 %16, label %17, label %18

17:                                               ; preds = %14, %4
  store i32 -173, ptr %5, align 4
  store i32 1, ptr %11, align 4
  br label %34

18:                                               ; preds = %14
  %19 = load ptr, ptr %6, align 8, !tbaa !3
  %20 = call i32 @Sha512Final(ptr noundef %19)
  store i32 %20, ptr %10, align 4, !tbaa !9
  %21 = load i32, ptr %10, align 4, !tbaa !9
  %22 = icmp ne i32 %21, 0
  br i1 %22, label %23, label %25

23:                                               ; preds = %18
  %24 = load i32, ptr %10, align 4, !tbaa !9
  store i32 %24, ptr %5, align 4
  store i32 1, ptr %11, align 4
  br label %34

25:                                               ; preds = %18
  %26 = load ptr, ptr %7, align 8, !tbaa !18
  %27 = load ptr, ptr %6, align 8, !tbaa !3
  %28 = getelementptr inbounds nuw %struct.wc_Sha512, ptr %27, i32 0, i32 0
  %29 = getelementptr inbounds [8 x i64], ptr %28, i64 0, i64 0
  %30 = load i64, ptr %8, align 8, !tbaa !14
  call void @llvm.memcpy.p0.p0.i64(ptr align 1 %26, ptr align 8 %29, i64 %30, i1 false)
  %31 = load ptr, ptr %9, align 8, !tbaa !8
  %32 = load ptr, ptr %6, align 8, !tbaa !3
  %33 = call i32 %31(ptr noundef %32)
  store i32 %33, ptr %5, align 4
  store i32 1, ptr %11, align 4
  br label %34

34:                                               ; preds = %25, %23, %17
  call void @llvm.lifetime.end.p0(i64 4, ptr %10) #5
  %35 = load i32, ptr %5, align 4
  ret i32 %35
}

; Function Attrs: nounwind uwtable
define i32 @wc_Sha512_224Final(ptr noundef %0, ptr noundef %1) #0 {
  %3 = alloca ptr, align 8
  %4 = alloca ptr, align 8
  store ptr %0, ptr %3, align 8, !tbaa !3
  store ptr %1, ptr %4, align 8, !tbaa !18
  %5 = load ptr, ptr %3, align 8, !tbaa !3
  %6 = load ptr, ptr %4, align 8, !tbaa !18
  %7 = call i32 @Sha512_Family_Final(ptr noundef %5, ptr noundef %6, i64 noundef 28, ptr noundef @InitSha512_224)
  ret i32 %7
}